target datalayout = "e-m:e-p270:32:32-p271:32:32-p272:64:64-i64:64-i128:128-f80:128-n8:16:32:64-S128"
target triple = "x86_64-pc-linux-gnu"

%"struct.google::protobuf::strings::Hex" = type <{ i64, i32, [4 x i8] }>
%"struct.google::protobuf::strings::AlphaNum" = type { ptr, i64, [32 x i8] }

@_ZZN6google8protobuf7strings8AlphaNumC1ENS1_3HexEE9hexdigits = internal constant [17 x i8] c"0123456789abcdef\00", align 16

; Function Attrs: mustprogress nounwind uwtable
define hidden void @_ZN6google8protobuf7strings8AlphaNumC2ENS1_3HexE(ptr noundef nonnull align 8 dereferenceable(48) %0, i64 %1, i32 %2) unnamed_addr #6 align 2 {
  %4 = alloca %"struct.google::protobuf::strings::Hex", align 8
  %5 = alloca ptr, align 8
  %6 = alloca ptr, align 8
  %7 = alloca ptr, align 8
  %8 = alloca i64, align 8
  %9 = alloca i64, align 8
  %10 = alloca i64, align 8
  %11 = getelementptr inbounds nuw { i64, i32 }, ptr %4, i32 0, i32 0
  store i64 %1, ptr %11, align 8
  %12 = getelementptr inbounds nuw { i64, i32 }, ptr %4, i32 0, i32 1
  store i32 %2, ptr %12, align 8
  store ptr %0, ptr %5, align 8, !tbaa !94
  %13 = load ptr, ptr %5, align 8
  call void @llvm.lifetime.start.p0(i64 8, ptr %6) #3
  %14 = getelementptr inbounds nuw %"struct.google::protobuf::strings::AlphaNum", ptr %13, i32 0, i32 2
  %15 = getelementptr inbounds [32 x i8], ptr %14, i64 0, i64 32
  store ptr %15, ptr %6, align 8, !tbaa !8
  call void @llvm.lifetime.start.p0(i64 8, ptr %7) #3
  %16 = load ptr, ptr %6, align 8, !tbaa !8
  store ptr %16, ptr %7, align 8, !tbaa !8
  call void @llvm.lifetime.start.p0(i64 8, ptr %8) #3
  %17 = getelementptr inbounds nuw %"struct.google::protobuf::strings::Hex", ptr %4, i32 0, i32 0
  %18 = load i64, ptr %17, align 8, !tbaa !96
  store i64 %18, ptr %8, align 8, !tbaa !13
  call void @llvm.lifetime.start.p0(i64 8, ptr %9) #3
  %19 = getelementptr inbounds nuw %"struct.google::protobuf::strings::Hex", ptr %4, i32 0, i32 1
  %20 = load i32, ptr %19, align 8, !tbaa !99
  %21 = zext i32 %20 to i64
  store i64 %21, ptr %9, align 8, !tbaa !13
  call void @llvm.lifetime.start.p0(i64 8, ptr %10) #3
  %22 = load i64, ptr %9, align 8, !tbaa !13
  %23 = sub i64 %22, 1
  %24 = mul i64 %23, 4
  %25 = shl i64 1, %24
  %26 = load i64, ptr %8, align 8, !tbaa !13
  %27 = or i64 %25, %26
  store i64 %27, ptr %10, align 8, !tbaa !13
  br label %28

28:                                               ; preds = %39, %3
  %29 = load i64, ptr %8, align 8, !tbaa !13
  %30 = and i64 %29, 15
  %31 = getelementptr inbounds nuw [17 x i8], ptr @_ZZN6google8protobuf7strings8AlphaNumC1ENS1_3HexEE9hexdigits, i64 0, i64 %30
  %32 = load i8, ptr %31, align 1, !tbaa !10
  %33 = load ptr, ptr %7, align 8, !tbaa !8
  %34 = getelementptr inbounds i8, ptr %33, i32 -1
  store ptr %34, ptr %7, align 8, !tbaa !8
  store i8 %32, ptr %34, align 1, !tbaa !10
  %35 = load i64, ptr %8, align 8, !tbaa !13
  %36 = lshr i64 %35, 4
  store i64 %36, ptr %8, align 8, !tbaa !13
  %37 = load i64, ptr %10, align 8, !tbaa !13
  %38 = lshr i64 %37, 4
  store i64 %38, ptr %10, align 8, !tbaa !13
  br label %39

39:                                               ; preds = %28
  %40 = load i64, ptr %10, align 8, !tbaa !13
  %41 = icmp ne i64 %40, 0
  br i1 %41, label %28, label %42, !llvm.loop !100

42:                                               ; preds = %39
  %43 = load ptr, ptr %7, align 8, !tbaa !8
  %44 = getelementptr inbounds nuw %"struct.google::protobuf::strings::AlphaNum", ptr %13, i32 0, i32 0
  store ptr %43, ptr %44, align 8, !tbaa !101
  %45 = load ptr, ptr %6, align 8, !tbaa !8
  %46 = load ptr, ptr %7, align 8, !tbaa !8
  %47 = ptrtoint ptr %45 to i64
  %48 = ptrtoint ptr %46 to i64
  %49 = sub i64 %47, %48
  %50 = getelementptr inbounds nuw %"struct.google::protobuf::strings::AlphaNum", ptr %13, i32 0, i32 1
  store i64 %49, ptr %50, align 8, !tbaa !103
  call void @llvm.lifetime.end.p0(i64 8, ptr %10) #3
  call void @llvm.lifetime.end.p0(i64 8, ptr %9) #3
  call void @llvm.lifetime.end.p0(i64 8, ptr %8) #3
  call void @llvm.lifetime.end.p0(i64 8, ptr %7) #3
  call void @llvm.lifetime.end.p0(i64 8, ptr %6) #3
  ret void
}