; Function Attrs: mustprogress nofree norecurse nosync nounwind memory(argmem: write) uwtable
define hidden void @_ZN6google8protobuf7strings8AlphaNumC2ENS1_3HexE(ptr noundef nonnull align 8 dereferenceable(48) %0, i64 %1, i32 %2) unnamed_addr #16 align 2 {
  %4 = getelementptr inbounds nuw i8, ptr %0, i64 48
  %5 = zext i32 %2 to i64
  %6 = shl nuw nsw i64 %5, 2
  %7 = add nsw i64 %6, -4
  %8 = shl nuw i64 1, %7
  %9 = or i64 %8, %1
  br label %10

10:                                               ; preds = %10, %3
  %.012 = phi i64 [ %1, %3 ], [ %15, %10 ]
  %.011 = phi ptr [ %4, %3 ], [ %14, %10 ]
  %.0 = phi i64 [ %9, %3 ], [ %16, %10 ]
  %11 = and i64 %.012, 15
  %12 = getelementptr inbounds nuw [17 x i8], ptr @_ZZN6google8protobuf7strings8AlphaNumC1ENS1_3HexEE9hexdigits, i64 0, i64 %11
  %13 = load i8, ptr %12, align 1, !tbaa !11
  %14 = getelementptr inbounds i8, ptr %.011, i64 -1
  store i8 %13, ptr %14, align 1, !tbaa !11
  %15 = lshr i64 %.012, 4
  %16 = lshr i64 %.0, 4
  %.not = icmp ult i64 %.0, 16
  br i1 %.not, label %17, label %10, !llvm.loop !94

17:                                               ; preds = %10
  store ptr %14, ptr %0, align 8, !tbaa !95
  %18 = ptrtoint ptr %4 to i64
  %19 = ptrtoint ptr %14 to i64
  %20 = sub i64 %18, %19
  %21 = getelementptr inbounds nuw i8, ptr %0, i64 8
  store i64 %20, ptr %21, align 8, !tbaa !97
  ret void
}